; Function Attrs: nounwind uwtable
define dso_local noundef range(i64 -60, 1) i64 @ZSTD_initCStream_usingCDict_advanced(ptr noundef captures(none) initializes((48, 60), (736, 744), (3584, 3588), (3640, 3664), (3672, 3704)) %0, ptr noundef %1, i64 %2, i32 %3, i64 noundef %4) local_unnamed_addr #1 {
ZSTD_CCtx_setPledgedSrcSize.exit:
  %5 = getelementptr inbounds nuw i8, ptr %0, i64 3584
  store i32 0, ptr %5, align 8
  %6 = getelementptr inbounds nuw i8, ptr %0, i64 736
  %7 = add i64 %4, 1
  store i64 %7, ptr %6, align 8
  %8 = getelementptr inbounds nuw i8, ptr %0, i64 48
  store i64 %2, ptr %8, align 8
  %.sroa.212.0..sroa_idx = getelementptr inbounds nuw i8, ptr %0, i64 56
  store i32 %3, ptr %.sroa.212.0..sroa_idx, align 8
  tail call fastcc void @ZSTD_clearAllDicts(ptr noundef nonnull %0)
  %9 = getelementptr inbounds nuw i8, ptr %0, i64 3672
  store ptr %1, ptr %9, align 8
  ret i64 0
}